target datalayout = "e-m:e-p270:32:32-p271:32:32-p272:64:64-i64:64-i128:128-f80:128-n8:16:32:64-S128"
target triple = "x86_64-pc-linux-gnu"

@Cec2_ManSimHashKey.s_Primes = internal global [16 x i32] [i32 1291, i32 1699, i32 1999, i32 2357, i32 2953, i32 3313, i32 3907, i32 4177, i32 4831, i32 5147, i32 5647, i32 6343, i32 6899, i32 7103, i32 7873, i32 8147], align 16

; Function Attrs: nounwind uwtable
define i32 @Cec2_ManSimHashKey(ptr noundef %0, i32 noundef %1, i32 noundef %2) #0 {
  %4 = alloca ptr, align 8
  %5 = alloca i32, align 4
  %6 = alloca i32, align 4
  %7 = alloca i32, align 4
  %8 = alloca ptr, align 8
  %9 = alloca i32, align 4
  %10 = alloca i32, align 4
  store ptr %0, ptr %4, align 8
  store i32 %1, ptr %5, align 4
  store i32 %2, ptr %6, align 4
  store i32 0, ptr %7, align 4
  %11 = load ptr, ptr %4, align 8
  store ptr %11, ptr %8, align 8
  %12 = load i32, ptr %5, align 4
  %13 = mul nsw i32 2, %12
  store i32 %13, ptr %10, align 4
  %14 = load ptr, ptr %8, align 8
  %15 = getelementptr inbounds i32, ptr %14, i64 0
  %16 = load i32, ptr %15, align 4
  %17 = and i32 %16, 1
  %18 = icmp ne i32 %17, 0
  br i1 %18, label %19, label %43

19:                                               ; preds = %3
  store i32 0, ptr %9, align 4
  br label %20

20:                                               ; preds = %39, %19
  %21 = load i32, ptr %9, align 4
  %22 = load i32, ptr %10, align 4
  %23 = icmp slt i32 %21, %22
  br i1 %23, label %24, label %42

24:                                               ; preds = %20
  %25 = load ptr, ptr %8, align 8
  %26 = load i32, ptr %9, align 4
  %27 = sext i32 %26 to i64
  %28 = getelementptr inbounds i32, ptr %25, i64 %27
  %29 = load i32, ptr %28, align 4
  %30 = xor i32 %29, -1
  %31 = load i32, ptr %9, align 4
  %32 = and i32 %31, 15
  %33 = sext i32 %32 to i64
  %34 = getelementptr inbounds [16 x i32], ptr @Cec2_ManSimHashKey.s_Primes, i64 0, i64 %33
  %35 = load i32, ptr %34, align 4
  %36 = mul i32 %30, %35
  %37 = load i32, ptr %7, align 4
  %38 = xor i32 %37, %36
  store i32 %38, ptr %7, align 4
  br label %39

39:                                               ; preds = %24
  %40 = load i32, ptr %9, align 4
  %41 = add nsw i32 %40, 1
  store i32 %41, ptr %9, align 4
  br label %20, !llvm.loop !32

42:                                               ; preds = %20
  br label %66

43:                                               ; preds = %3
  store i32 0, ptr %9, align 4
  br label %44

44:                                               ; preds = %62, %43
  %45 = load i32, ptr %9, align 4
  %46 = load i32, ptr %10, align 4
  %47 = icmp slt i32 %45, %46
  br i1 %47, label %48, label %65

48:                                               ; preds = %44
  %49 = load ptr, ptr %8, align 8
  %50 = load i32, ptr %9, align 4
  %51 = sext i32 %50 to i64
  %52 = getelementptr inbounds i32, ptr %49, i64 %51
  %53 = load i32, ptr %52, align 4
  %54 = load i32, ptr %9, align 4
  %55 = and i32 %54, 15
  %56 = sext i32 %55 to i64
  %57 = getelementptr inbounds [16 x i32], ptr @Cec2_ManSimHashKey.s_Primes, i64 0, i64 %56
  %58 = load i32, ptr %57, align 4
  %59 = mul i32 %53, %58
  %60 = load i32, ptr %7, align 4
  %61 = xor i32 %60, %59
  store i32 %61, ptr %7, align 4
  br label %62

62:                                               ; preds = %48
  %63 = load i32, ptr %9, align 4
  %64 = add nsw i32 %63, 1
  store i32 %64, ptr %9, align 4
  br label %44, !llvm.loop !33

65:                                               ; preds = %44
  br label %66

66:                                               ; preds = %65, %42
  %67 = load i32, ptr %7, align 4
  %68 = load i32, ptr %6, align 4
  %69 = urem i32 %67, %68
  ret i32 %69
}